target datalayout = "e-m:e-p270:32:32-p271:32:32-p272:64:64-i64:64-i128:128-f80:128-n8:16:32:64-S128"
target triple = "x86_64-unknown-linux-gnu"

%struct.ec_key_st = type { ptr, ptr, ptr, i32, i32, i32, ptr, %struct.crypto_ex_data_st }
%struct.crypto_ex_data_st = type { ptr }

@.str = private unnamed_addr constant [123 x i8] c"generated/home/dtcxzyw/WorkSpace/Projects/compilers/llvm-opt-benchmark/bench/libquic/libquic/boringssl/crypto/ec/ec_asn1.c\00", align 1

; Function Attrs: nounwind uwtable
define hidden ptr @o2i_ECPublicKey(ptr noundef %keyp, ptr noundef %inp, i64 noundef %len) #0 {
entry:
  %retval = alloca ptr, align 8
  %keyp.addr = alloca ptr, align 8
  %inp.addr = alloca ptr, align 8
  %len.addr = alloca i64, align 8
  %ret = alloca ptr, align 8
  store ptr %keyp, ptr %keyp.addr, align 8
  store ptr %inp, ptr %inp.addr, align 8
  store i64 %len, ptr %len.addr, align 8
  store ptr null, ptr %ret, align 8
  %0 = load ptr, ptr %keyp.addr, align 8
  %cmp = icmp eq ptr %0, null
  br i1 %cmp, label %if.then, label %lor.lhs.false

lor.lhs.false:                                    ; preds = %entry
  %1 = load ptr, ptr %keyp.addr, align 8
  %2 = load ptr, ptr %1, align 8
  %cmp1 = icmp eq ptr %2, null
  br i1 %cmp1, label %if.then, label %lor.lhs.false2

lor.lhs.false2:                                   ; preds = %lor.lhs.false
  %3 = load ptr, ptr %keyp.addr, align 8
  %4 = load ptr, ptr %3, align 8
  %group = getelementptr inbounds %struct.ec_key_st, ptr %4, i32 0, i32 0
  %5 = load ptr, ptr %group, align 8
  %cmp3 = icmp eq ptr %5, null
  br i1 %cmp3, label %if.then, label %if.end

if.then:                                          ; preds = %lor.lhs.false2, %lor.lhs.false, %entry
  call void @ERR_put_error(i32 noundef 15, i32 noundef 0, i32 noundef 67, ptr noundef @.str, i32 noundef 491)
  store ptr null, ptr %retval, align 8
  br label %return

if.end:                                           ; preds = %lor.lhs.false2
  %6 = load ptr, ptr %keyp.addr, align 8
  %7 = load ptr, ptr %6, align 8
  store ptr %7, ptr %ret, align 8
  %8 = load ptr, ptr %ret, align 8
  %pub_key = getelementptr inbounds %struct.ec_key_st, ptr %8, i32 0, i32 1
  %9 = load ptr, ptr %pub_key, align 8
  %cmp4 = icmp eq ptr %9, null
  br i1 %cmp4, label %land.lhs.true, label %if.end9

land.lhs.true:                                    ; preds = %if.end
  %10 = load ptr, ptr %ret, align 8
  %group5 = getelementptr inbounds %struct.ec_key_st, ptr %10, i32 0, i32 0
  %11 = load ptr, ptr %group5, align 8
  %call = call ptr @EC_POINT_new(ptr noundef %11)
  %12 = load ptr, ptr %ret, align 8
  %pub_key6 = getelementptr inbounds %struct.ec_key_st, ptr %12, i32 0, i32 1
  store ptr %call, ptr %pub_key6, align 8
  %cmp7 = icmp eq ptr %call, null
  br i1 %cmp7, label %if.then8, label %if.end9

if.then8:                                         ; preds = %land.lhs.true
  call void @ERR_put_error(i32 noundef 15, i32 noundef 0, i32 noundef 65, ptr noundef @.str, i32 noundef 497)
  store ptr null, ptr %retval, align 8
  br label %return

if.end9:                                          ; preds = %land.lhs.true, %if.end
  %13 = load ptr, ptr %ret, align 8
  %group10 = getelementptr inbounds %struct.ec_key_st, ptr %13, i32 0, i32 0
  %14 = load ptr, ptr %group10, align 8
  %15 = load ptr, ptr %ret, align 8
  %pub_key11 = getelementptr inbounds %struct.ec_key_st, ptr %15, i32 0, i32 1
  %16 = load ptr, ptr %pub_key11, align 8
  %17 = load ptr, ptr %inp.addr, align 8
  %18 = load ptr, ptr %17, align 8
  %19 = load i64, ptr %len.addr, align 8
  %call12 = call i32 @EC_POINT_oct2point(ptr noundef %14, ptr noundef %16, ptr noundef %18, i64 noundef %19, ptr noundef null)
  %tobool = icmp ne i32 %call12, 0
  br i1 %tobool, label %if.end14, label %if.then13

if.then13:                                        ; preds = %if.end9
  call void @ERR_put_error(i32 noundef 15, i32 noundef 0, i32 noundef 15, ptr noundef @.str, i32 noundef 501)
  store ptr null, ptr %retval, align 8
  br label %return

if.end14:                                         ; preds = %if.end9
  %20 = load ptr, ptr %inp.addr, align 8
  %arrayidx = getelementptr inbounds ptr, ptr %20, i64 0
  %21 = load ptr, ptr %arrayidx, align 8
  %22 = load i8, ptr %21, align 1
  %conv = zext i8 %22 to i32
  %and = and i32 %conv, -2
  %23 = load ptr, ptr %ret, align 8
  %conv_form = getelementptr inbounds %struct.ec_key_st, ptr %23, i32 0, i32 4
  store i32 %and, ptr %conv_form, align 4
  %24 = load i64, ptr %len.addr, align 8
  %25 = load ptr, ptr %inp.addr, align 8
  %26 = load ptr, ptr %25, align 8
  %add.ptr = getelementptr inbounds i8, ptr %26, i64 %24
  store ptr %add.ptr, ptr %25, align 8
  %27 = load ptr, ptr %ret, align 8
  store ptr %27, ptr %retval, align 8
  br label %return

return:                                           ; preds = %if.end14, %if.then13, %if.then8, %if.then
  %28 = load ptr, ptr %retval, align 8
  ret ptr %28
}