; Function Attrs: nounwind uwtable
define hidden ptr @o2i_ECPublicKey(ptr noundef readonly %keyp, ptr noundef captures(none) %inp, i64 noundef %len) local_unnamed_addr #0 {
entry:
  %cmp = icmp eq ptr %keyp, null
  br i1 %cmp, label %if.then, label %lor.lhs.false

lor.lhs.false:                                    ; preds = %entry
  %0 = load ptr, ptr %keyp, align 8
  %cmp1 = icmp eq ptr %0, null
  br i1 %cmp1, label %if.then, label %lor.lhs.false2

lor.lhs.false2:                                   ; preds = %lor.lhs.false
  %1 = load ptr, ptr %0, align 8
  %cmp3 = icmp eq ptr %1, null
  br i1 %cmp3, label %if.then, label %if.end

if.then:                                          ; preds = %lor.lhs.false2, %lor.lhs.false, %entry
  tail call void @ERR_put_error(i32 noundef 15, i32 noundef 0, i32 noundef 67, ptr noundef nonnull @.str, i32 noundef 491) #7
  br label %return

if.end:                                           ; preds = %lor.lhs.false2
  %pub_key = getelementptr inbounds nuw i8, ptr %0, i64 8
  %2 = load ptr, ptr %pub_key, align 8
  %cmp4 = icmp eq ptr %2, null
  br i1 %cmp4, label %land.lhs.true, label %if.end9

land.lhs.true:                                    ; preds = %if.end
  %call = tail call ptr @EC_POINT_new(ptr noundef nonnull %1) #7
  store ptr %call, ptr %pub_key, align 8
  %cmp7 = icmp eq ptr %call, null
  br i1 %cmp7, label %if.then8, label %land.lhs.true.if.end9_crit_edge

land.lhs.true.if.end9_crit_edge:                  ; preds = %land.lhs.true
  %.pre = load ptr, ptr %0, align 8
  br label %if.end9

if.then8:                                         ; preds = %land.lhs.true
  tail call void @ERR_put_error(i32 noundef 15, i32 noundef 0, i32 noundef 65, ptr noundef nonnull @.str, i32 noundef 497) #7
  br label %return

if.end9:                                          ; preds = %land.lhs.true.if.end9_crit_edge, %if.end
  %3 = phi ptr [ %call, %land.lhs.true.if.end9_crit_edge ], [ %2, %if.end ]
  %4 = phi ptr [ %.pre, %land.lhs.true.if.end9_crit_edge ], [ %1, %if.end ]
  %5 = load ptr, ptr %inp, align 8
  %call12 = tail call i32 @EC_POINT_oct2point(ptr noundef %4, ptr noundef nonnull %3, ptr noundef %5, i64 noundef %len, ptr noundef null) #7
  %tobool.not = icmp eq i32 %call12, 0
  br i1 %tobool.not, label %if.then13, label %if.end14

if.then13:                                        ; preds = %if.end9
  tail call void @ERR_put_error(i32 noundef 15, i32 noundef 0, i32 noundef 15, ptr noundef nonnull @.str, i32 noundef 501) #7
  br label %return

if.end14:                                         ; preds = %if.end9
  %6 = load ptr, ptr %inp, align 8
  %7 = load i8, ptr %6, align 1
  %8 = and i8 %7, -2
  %and = zext i8 %8 to i32
  %conv_form = getelementptr inbounds nuw i8, ptr %0, i64 28
  store i32 %and, ptr %conv_form, align 4
  %9 = load ptr, ptr %inp, align 8
  %add.ptr = getelementptr inbounds i8, ptr %9, i64 %len
  store ptr %add.ptr, ptr %inp, align 8
  br label %return

return:                                           ; preds = %if.end14, %if.then13, %if.then8, %if.then
  %retval.0 = phi ptr [ null, %if.then ], [ null, %if.then8 ], [ %0, %if.end14 ], [ null, %if.then13 ]
  ret ptr %retval.0
}